target datalayout = "e-m:e-p270:32:32-p271:32:32-p272:64:64-i64:64-i128:128-f80:128-n8:16:32:64-S128"
target triple = "x86_64-pc-linux-gnu"

%"class.q::ematch" = type { ptr, ptr, ptr, %"class.q::eval", %"class.q::quantifier_stat_gen", %class.ptr_hashtable, %class.scoped_ptr, i32, %"class.q::queue", %class.svector.42, %class.pattern_inference_rw, %class.scoped_ptr.84, %class.scoped_ptr.84, %class.ptr_vector.85, %class.obj_map.87, %class.vector.92, %"struct.q::ematch::stats", %class.ast_fast_mark, i32, %class.ptr_vector.23, i8, %class.nat_set, %class.nat_set, i32, %class.svector.30, %class.svector.93, i8, %class.symbol, %class.ptr_vector.95, %class.svector.97, %class.ref_vector, %class.ref_vector.20, %class.defined_names, %class.nnf }
%"class.q::eval" = type { ptr, ptr, %class.ast_fast_mark, %class.ptr_vector, %class.ptr_vector, i8, %"struct.std::pair", %class.contains_vars }
%class.ptr_vector = type { %class.vector }
%class.vector = type { ptr }
%"struct.std::pair" = type { ptr, ptr }
%class.contains_vars = type { ptr }
%"class.q::quantifier_stat_gen" = type <{ ptr, ptr, %class.obj_map, %class.svector, %class.approx_nat, [4 x i8] }>
%class.obj_map = type { %class.core_hashtable }
%class.core_hashtable = type <{ ptr, i32, i32, i32, [4 x i8] }>
%class.svector = type { %class.vector.0 }
%class.vector.0 = type { ptr }
%class.approx_nat = type { i32 }
%class.ptr_hashtable = type { %class.core_hashtable.base.2, [4 x i8] }
%class.core_hashtable.base.2 = type <{ ptr, i32, i32, i32 }>
%class.scoped_ptr = type { ptr }
%"class.q::queue" = type { ptr, ptr, ptr, ptr, %"struct.q::queue::stats", %class.obj_ref, %class.obj_ref, %class.cost_parser, %class.cost_evaluator, %class.cached_var_subst, %class.svector.38, double, %class.svector.40, %class.svector.40 }
%"struct.q::queue::stats" = type { i32, i32 }
%class.obj_ref = type { ptr, ptr }
%class.cost_parser = type { %class.simple_parser, %class.arith_util, %class.ref_vector.11 }
%class.simple_parser = type { ptr, ptr, %class.map, %class.map.5, %class.ref_vector }
%class.map = type { %class.table2map }
%class.table2map = type { %class.core_hashtable.3 }
%class.core_hashtable.3 = type <{ ptr, i32, i32, i32, [4 x i8] }>
%class.map.5 = type { %class.table2map.6 }
%class.table2map.6 = type { %class.core_hashtable.7 }
%class.core_hashtable.7 = type <{ ptr, i32, i32, i32, [4 x i8] }>
%class.arith_util = type { ptr, ptr }
%class.ref_vector.11 = type { %class.ref_vector_core.12 }
%class.ref_vector_core.12 = type { %class.ref_manager_wrapper.13, %class.ptr_vector.14 }
%class.ref_manager_wrapper.13 = type { ptr }
%class.ptr_vector.14 = type { %class.vector.15 }
%class.vector.15 = type { ptr }
%class.cost_evaluator = type { ptr, %class.arith_util, i32, ptr }
%class.cached_var_subst = type { ptr, %class.var_subst, %class.ref_vector, %class.map.32, %class.region, %class.ptr_vector.36, ptr }
%class.var_subst = type { %class.beta_reducer, i8, [7 x i8] }
%class.beta_reducer = type <{ %class.rewriter_tpl, [8 x i8] }>
%class.rewriter_tpl = type { %class.rewriter_core, ptr, i32, %class.ptr_vector.9, %class.var_shifter, %class.inv_var_shifter, %class.obj_ref, %class.obj_ref.29, %class.obj_ref.29, %class.svector.30 }
%class.rewriter_core = type { ptr, ptr, i8, i8, %class.ptr_vector.16, ptr, %class.svector.18, %class.ref_vector, %class.ptr_vector.16, ptr, %class.ref_vector.20, %class.obj_hashtable, ptr, i32, %class.svector.27 }
%class.svector.18 = type { %class.vector.19 }
%class.vector.19 = type { ptr }
%class.ptr_vector.16 = type { %class.vector.17 }
%class.vector.17 = type { ptr }
%class.obj_hashtable = type { %class.core_hashtable.base.26, [4 x i8] }
%class.core_hashtable.base.26 = type <{ ptr, i32, i32, i32 }>
%class.svector.27 = type { %class.vector.28 }
%class.vector.28 = type { ptr }
%class.ptr_vector.9 = type { %class.vector.10 }
%class.vector.10 = type { ptr }
%class.var_shifter = type <{ %class.var_shifter_core, i32, i32, i32, [4 x i8] }>
%class.var_shifter_core = type { %class.rewriter_core }
%class.inv_var_shifter = type <{ %class.var_shifter_core, i32, [4 x i8] }>
%class.obj_ref.29 = type { ptr, ptr }
%class.map.32 = type { %class.table2map.33 }
%class.table2map.33 = type { %class.core_hashtable.34 }
%class.core_hashtable.34 = type <{ ptr, i32, i32, i32, [4 x i8] }>
%class.region = type { ptr, ptr, ptr, ptr, ptr }
%class.ptr_vector.36 = type { %class.vector.37 }
%class.vector.37 = type { ptr }
%class.svector.38 = type { %class.vector.39 }
%class.vector.39 = type { ptr }
%class.svector.40 = type { %class.vector.41 }
%class.vector.41 = type { ptr }
%class.svector.42 = type { %class.vector.43 }
%class.vector.43 = type { ptr }
%class.pattern_inference_rw = type { %class.rewriter_tpl.44, %class.pattern_inference_cfg }
%class.rewriter_tpl.44 = type { %class.rewriter_core, ptr, i32, %class.ptr_vector.9, %class.var_shifter, %class.inv_var_shifter, %class.obj_ref, %class.obj_ref.29, %class.obj_ref.29, %class.svector.30 }
%class.pattern_inference_cfg = type { ptr, ptr, i32, i32, %class.svector.45, %class.obj_hashtable.47, %class.smaller_pattern, i32, i32, ptr, i8, i8, i8, [5 x i8], %class.obj_map.58, %class.ref_vector.20, %class.ptr_vector.23, %class.ptr_vector.23, %class.ptr_vector.23, %"struct.pattern_inference_cfg::pattern_weight_lt", %"class.pattern_inference_cfg::collect", %"class.pattern_inference_cfg::contains_subpattern", %class.ptr_vector.73, %class.expr_pattern_match, %class.ptr_buffer.82 }
%class.svector.45 = type { %class.vector.46 }
%class.vector.46 = type { ptr }
%class.obj_hashtable.47 = type { %class.core_hashtable.base.51, [4 x i8] }
%class.core_hashtable.base.51 = type <{ ptr, i32, i32, i32 }>
%class.smaller_pattern = type { %class.ptr_vector.9, %class.svector.53, %class.obj_pair_hashtable }
%class.svector.53 = type { %class.vector.54 }
%class.vector.54 = type { ptr }
%class.obj_pair_hashtable = type { %class.core_hashtable.base.57, [4 x i8] }
%class.core_hashtable.base.57 = type <{ ptr, i32, i32, i32 }>
%class.obj_map.58 = type { %class.core_hashtable.59 }
%class.core_hashtable.59 = type <{ ptr, i32, i32, i32, [4 x i8] }>
%"struct.pattern_inference_cfg::pattern_weight_lt" = type { ptr }
%"class.pattern_inference_cfg::collect" = type { ptr, ptr, i32, i32, %class.map.63, %class.ptr_vector.69, %class.svector.71 }
%class.map.63 = type { %class.table2map.64 }
%class.table2map.64 = type { %class.core_hashtable.65 }
%class.core_hashtable.65 = type <{ ptr, i32, i32, i32, [4 x i8] }>
%class.ptr_vector.69 = type { %class.vector.70 }
%class.vector.70 = type { ptr }
%class.svector.71 = type { %class.vector.72 }
%class.vector.72 = type { ptr }
%"class.pattern_inference_cfg::contains_subpattern" = type { ptr, %class.nat_set, %class.ptr_vector.9 }
%class.ptr_vector.73 = type { %class.vector.74 }
%class.vector.74 = type { ptr }
%class.expr_pattern_match = type { ptr, %class.ref_vector.75, %class.svector.30, %class.svector.80, %class.ptr_vector.9, %class.ptr_vector.14, %class.ptr_vector.14 }
%class.ref_vector.75 = type { %class.ref_vector_core.76 }
%class.ref_vector_core.76 = type { %class.ref_manager_wrapper.77, %class.ptr_vector.78 }
%class.ref_manager_wrapper.77 = type { ptr }
%class.ptr_vector.78 = type { %class.vector.79 }
%class.vector.79 = type { ptr }
%class.svector.80 = type { %class.vector.81 }
%class.vector.81 = type { ptr }
%class.ptr_buffer.82 = type { %class.buffer.83 }
%class.buffer.83 = type { ptr, i32, i32, [128 x i8] }
%class.scoped_ptr.84 = type { ptr }
%class.ptr_vector.85 = type { %class.vector.86 }
%class.vector.86 = type { ptr }
%class.obj_map.87 = type { %class.core_hashtable.88 }
%class.core_hashtable.88 = type <{ ptr, i32, i32, i32, [4 x i8] }>
%class.vector.92 = type { ptr }
%"struct.q::ematch::stats" = type { i32, i32, i32, i32, i32 }
%class.ast_fast_mark = type { %class.ptr_buffer }
%class.ptr_buffer = type { %class.buffer }
%class.buffer = type { ptr, i32, i32, [128 x i8] }
%class.ptr_vector.23 = type { %class.vector.24 }
%class.vector.24 = type { ptr }
%class.nat_set = type { i32, %class.svector.30 }
%class.svector.30 = type { %class.vector.31 }
%class.vector.31 = type { ptr }
%class.svector.93 = type { %class.vector.94 }
%class.vector.94 = type { ptr }
%class.symbol = type { ptr }
%class.ptr_vector.95 = type { %class.vector.96 }
%class.vector.96 = type { ptr }
%class.svector.97 = type { %class.vector.98 }
%class.vector.98 = type { ptr }
%class.ref_vector = type { %class.ref_vector_core }
%class.ref_vector_core = type { %class.ref_manager_wrapper, %class.ptr_vector.9 }
%class.ref_manager_wrapper = type { ptr }
%class.ref_vector.20 = type { %class.ref_vector_core.21 }
%class.ref_vector_core.21 = type { %class.ref_manager_wrapper.22, %class.ptr_vector.23 }
%class.ref_manager_wrapper.22 = type { ptr }
%class.defined_names = type { ptr, ptr }
%class.nnf = type { ptr }

; Function Attrs: mustprogress nounwind uwtable
define linkonce_odr hidden noundef i32 @_ZNK6vectorIPN1q6clauseELb0EjE4sizeEv(ptr noundef nonnull align 8 dereferenceable(8) %0) #5 comdat align 2 {
  %2 = alloca i32, align 4
  %3 = alloca ptr, align 8
  store ptr %0, ptr %3, align 8, !tbaa !621
  %4 = load ptr, ptr %3, align 8
  %5 = getelementptr inbounds nuw %class.vector.86, ptr %4, i32 0, i32 0
  %6 = load ptr, ptr %5, align 8, !tbaa !775
  %7 = icmp eq ptr %6, null
  br i1 %7, label %8, label %9

8:                                                ; preds = %1
  store i32 0, ptr %2, align 4
  br label %14

9:                                                ; preds = %1
  %10 = getelementptr inbounds nuw %class.vector.86, ptr %4, i32 0, i32 0
  %11 = load ptr, ptr %10, align 8, !tbaa !775
  %12 = getelementptr inbounds i32, ptr %11, i64 -1
  %13 = load i32, ptr %12, align 4, !tbaa !553
  store i32 %13, ptr %2, align 4
  br label %14

14:                                               ; preds = %9, %8
  %15 = load i32, ptr %2, align 4
  ret i32 %15
}

; Function Attrs: mustprogress nounwind uwtable
define linkonce_odr hidden noundef ptr @_ZNK6vectorIPN1q6clauseELb0EjE3endEv(ptr noundef nonnull align 8 dereferenceable(8) %0) #5 comdat align 2 {
  %2 = alloca ptr, align 8
  store ptr %0, ptr %2, align 8, !tbaa !621
  %3 = load ptr, ptr %2, align 8
  %4 = getelementptr inbounds nuw %class.vector.86, ptr %3, i32 0, i32 0
  %5 = load ptr, ptr %4, align 8, !tbaa !775
  %6 = call noundef i32 @_ZNK6vectorIPN1q6clauseELb0EjE4sizeEv(ptr noundef nonnull align 8 dereferenceable(8) %3)
  %7 = zext i32 %6 to i64
  %8 = getelementptr inbounds nuw ptr, ptr %5, i64 %7
  ret ptr %8
}

; Function Attrs: mustprogress nounwind uwtable
define linkonce_odr hidden noundef ptr @_ZNK6vectorIPN1q6clauseELb0EjE5beginEv(ptr noundef nonnull align 8 dereferenceable(8) %0) #5 comdat align 2 {
  %2 = alloca ptr, align 8
  store ptr %0, ptr %2, align 8, !tbaa !621
  %3 = load ptr, ptr %2, align 8
  %4 = getelementptr inbounds nuw %class.vector.86, ptr %3, i32 0, i32 0
  %5 = load ptr, ptr %4, align 8, !tbaa !775
  ret ptr %5
}

; Function Attrs: mustprogress uwtable
define hidden noundef nonnull align 8 dereferenceable(8) ptr @_ZNK1q6ematch7displayERSo(ptr noundef nonnull align 8 dereferenceable(2680) %0, ptr noundef nonnull align 8 dereferenceable(8) %1) #4 align 2 {
  %3 = alloca ptr, align 8
  %4 = alloca ptr, align 8
  %5 = alloca ptr, align 8
  %6 = alloca ptr, align 8
  %7 = alloca ptr, align 8
  %8 = alloca ptr, align 8
  store ptr %0, ptr %3, align 8, !tbaa !3
  store ptr %1, ptr %4, align 8, !tbaa !716
  %9 = load ptr, ptr %3, align 8
  call void @llvm.lifetime.start.p0(i64 8, ptr %5) #3
  %10 = getelementptr inbounds nuw %"class.q::ematch", ptr %9, i32 0, i32 13
  store ptr %10, ptr %5, align 8, !tbaa !568
  call void @llvm.lifetime.start.p0(i64 8, ptr %6) #3
  %11 = load ptr, ptr %5, align 8, !tbaa !568
  %12 = call noundef ptr @_ZNK6vectorIPN1q6clauseELb0EjE5beginEv(ptr noundef nonnull align 8 dereferenceable(8) %11)
  store ptr %12, ptr %6, align 8, !tbaa !899
  call void @llvm.lifetime.start.p0(i64 8, ptr %7) #3
  %13 = load ptr, ptr %5, align 8, !tbaa !568
  %14 = call noundef ptr @_ZNK6vectorIPN1q6clauseELb0EjE3endEv(ptr noundef nonnull align 8 dereferenceable(8) %13)
  store ptr %14, ptr %7, align 8, !tbaa !899
  br label %15

15:                                               ; preds = %28, %2
  %16 = load ptr, ptr %6, align 8, !tbaa !899
  %17 = load ptr, ptr %7, align 8, !tbaa !899
  %18 = icmp ne ptr %16, %17
  br i1 %18, label %20, label %19

19:                                               ; preds = %15
  call void @llvm.lifetime.end.p0(i64 8, ptr %7) #3
  call void @llvm.lifetime.end.p0(i64 8, ptr %6) #3
  call void @llvm.lifetime.end.p0(i64 8, ptr %5) #3
  br label %31

20:                                               ; preds = %15
  call void @llvm.lifetime.start.p0(i64 8, ptr %8) #3
  %21 = load ptr, ptr %6, align 8, !tbaa !899
  store ptr %21, ptr %8, align 8, !tbaa !899
  %22 = load ptr, ptr %8, align 8, !tbaa !899
  %23 = load ptr, ptr %22, align 8, !tbaa !644
  %24 = getelementptr inbounds nuw %"class.q::ematch", ptr %9, i32 0, i32 0
  %25 = load ptr, ptr %24, align 8, !tbaa !638
  %26 = load ptr, ptr %4, align 8, !tbaa !716
  %27 = call noundef nonnull align 8 dereferenceable(8) ptr @_ZNK1q6clause7displayERN3euf6solverERSo(ptr noundef nonnull align 8 dereferenceable(56) %23, ptr noundef nonnull align 8 dereferenceable(8456) %25, ptr noundef nonnull align 8 dereferenceable(8) %26)
  call void @llvm.lifetime.end.p0(i64 8, ptr %8) #3
  br label %28

28:                                               ; preds = %20
  %29 = load ptr, ptr %6, align 8, !tbaa !899
  %30 = getelementptr inbounds nuw ptr, ptr %29, i32 1
  store ptr %30, ptr %6, align 8, !tbaa !899
  br label %15

31:                                               ; preds = %19
  %32 = load ptr, ptr %4, align 8, !tbaa !716
  ret ptr %32
}