; Function Attrs: mustprogress uwtable
define hidden noundef nonnull align 8 dereferenceable(8) ptr @_ZNK1q6ematch7displayERSo(ptr noundef nonnull readonly align 8 captures(none) dereferenceable(2680) %0, ptr noundef nonnull returned align 8 dereferenceable(8) %1) local_unnamed_addr #3 align 2 {
  %3 = getelementptr inbounds nuw i8, ptr %0, i64 2304
  %4 = load ptr, ptr %3, align 8, !tbaa !602
  %5 = icmp eq ptr %4, null
  br i1 %5, label %._crit_edge, label %_ZNK6vectorIPN1q6clauseELb0EjE3endEv.exit

_ZNK6vectorIPN1q6clauseELb0EjE3endEv.exit:        ; preds = %2
  %6 = getelementptr inbounds i8, ptr %4, i64 -4
  %7 = load i32, ptr %6, align 4, !tbaa !586
  %8 = zext i32 %7 to i64
  %9 = getelementptr inbounds nuw ptr, ptr %4, i64 %8
  %.not10 = icmp eq i32 %7, 0
  br i1 %.not10, label %._crit_edge, label %.lr.ph

._crit_edge:                                      ; preds = %.lr.ph, %2, %_ZNK6vectorIPN1q6clauseELb0EjE3endEv.exit
  ret ptr %1

.lr.ph:                                           ; preds = %_ZNK6vectorIPN1q6clauseELb0EjE3endEv.exit, %.lr.ph
  %.011 = phi ptr [ %13, %.lr.ph ], [ %4, %_ZNK6vectorIPN1q6clauseELb0EjE3endEv.exit ]
  %10 = load ptr, ptr %.011, align 8, !tbaa !652
  %11 = load ptr, ptr %0, align 8, !tbaa !615
  %12 = tail call noundef nonnull align 8 dereferenceable(8) ptr @_ZNK1q6clause7displayERN3euf6solverERSo(ptr noundef nonnull align 8 dereferenceable(56) %10, ptr noundef nonnull align 8 dereferenceable(8456) %11, ptr noundef nonnull align 8 dereferenceable(8) %1)
  %13 = getelementptr inbounds nuw i8, ptr %.011, i64 8
  %.not = icmp eq ptr %13, %9
  br i1 %.not, label %._crit_edge, label %.lr.ph
}